; Function Attrs: mustprogress nounwind uwtable
define hidden noundef zeroext i1 @_ZN26ProtectionDomainCacheTable6equalsERK10WeakHandleS2_(ptr nocapture noundef nonnull readonly align 8 dereferenceable(8) %0, ptr nocapture noundef nonnull readonly align 8 dereferenceable(8) %1) local_unnamed_addr #0 align 2 {
  %3 = load ptr, ptr %0, align 8
  %4 = load ptr, ptr @_ZN14AccessInternal15RuntimeDispatchILm593988EP7oopDescLNS_11BarrierTypeE2EE10_load_funcE, align 8
  %5 = tail call noundef ptr %4(ptr noundef %3) #12
  %6 = load ptr, ptr %1, align 8
  %7 = load ptr, ptr @_ZN14AccessInternal15RuntimeDispatchILm593988EP7oopDescLNS_11BarrierTypeE2EE10_load_funcE, align 8
  %8 = tail call noundef ptr %7(ptr noundef %6) #12
  %9 = icmp eq ptr %5, %8
  ret i1 %9
}